target datalayout = "e-m:e-p270:32:32-p271:32:32-p272:64:64-i64:64-i128:128-f80:128-n8:16:32:64-S128"
target triple = "x86_64-pc-linux-gnu"

%class.MethodMatcher = type { ptr, ptr, ptr, i32, i32 }
%class.InlineMatcher = type { %class.MethodMatcher, i32, ptr }

; Function Attrs: mustprogress nounwind uwtable
define linkonce_odr hidden void @_ZN12CHeapObjBasedlEPv(ptr noundef %0) #1 comdat align 2 {
  %2 = alloca ptr, align 8
  store ptr %0, ptr %2, align 8
  %3 = load ptr, ptr %2, align 8
  call void @_Z8FreeHeapPv(ptr noundef %3)
  ret void
}

; Function Attrs: mustprogress nounwind uwtable
define hidden void @_ZN13MethodMatcherD2Ev(ptr noundef nonnull align 8 dereferenceable(32) %0) unnamed_addr #1 align 2 {
  %2 = alloca ptr, align 8
  store ptr %0, ptr %2, align 8
  %3 = load ptr, ptr %2, align 8
  %4 = getelementptr inbounds %class.MethodMatcher, ptr %3, i32 0, i32 0
  %5 = load ptr, ptr %4, align 8
  %6 = icmp ne ptr %5, null
  br i1 %6, label %7, label %10

7:                                                ; preds = %1
  %8 = getelementptr inbounds %class.MethodMatcher, ptr %3, i32 0, i32 0
  %9 = load ptr, ptr %8, align 8
  call void @_ZN6Symbol18decrement_refcountEv(ptr noundef nonnull align 4 dereferenceable(8) %9)
  br label %10

10:                                               ; preds = %7, %1
  %11 = getelementptr inbounds %class.MethodMatcher, ptr %3, i32 0, i32 1
  %12 = load ptr, ptr %11, align 8
  %13 = icmp ne ptr %12, null
  br i1 %13, label %14, label %17

14:                                               ; preds = %10
  %15 = getelementptr inbounds %class.MethodMatcher, ptr %3, i32 0, i32 1
  %16 = load ptr, ptr %15, align 8
  call void @_ZN6Symbol18decrement_refcountEv(ptr noundef nonnull align 4 dereferenceable(8) %16)
  br label %17

17:                                               ; preds = %14, %10
  %18 = getelementptr inbounds %class.MethodMatcher, ptr %3, i32 0, i32 2
  %19 = load ptr, ptr %18, align 8
  %20 = icmp ne ptr %19, null
  br i1 %20, label %21, label %24

21:                                               ; preds = %17
  %22 = getelementptr inbounds %class.MethodMatcher, ptr %3, i32 0, i32 2
  %23 = load ptr, ptr %22, align 8
  call void @_ZN6Symbol18decrement_refcountEv(ptr noundef nonnull align 4 dereferenceable(8) %23)
  br label %24

24:                                               ; preds = %21, %17
  ret void
}

; Function Attrs: mustprogress nounwind uwtable
define hidden void @_ZN13MethodMatcherC2Ev(ptr noundef nonnull align 8 dereferenceable(32) %0) unnamed_addr #1 align 2 {
  %2 = alloca ptr, align 8
  store ptr %0, ptr %2, align 8
  %3 = load ptr, ptr %2, align 8
  %4 = getelementptr inbounds %class.MethodMatcher, ptr %3, i32 0, i32 0
  store ptr null, ptr %4, align 8
  %5 = getelementptr inbounds %class.MethodMatcher, ptr %3, i32 0, i32 1
  store ptr null, ptr %5, align 8
  %6 = getelementptr inbounds %class.MethodMatcher, ptr %3, i32 0, i32 2
  store ptr null, ptr %6, align 8
  %7 = getelementptr inbounds %class.MethodMatcher, ptr %3, i32 0, i32 3
  store i32 0, ptr %7, align 8
  %8 = getelementptr inbounds %class.MethodMatcher, ptr %3, i32 0, i32 4
  store i32 0, ptr %8, align 4
  ret void
}

; Function Attrs: mustprogress nounwind uwtable
define linkonce_odr hidden void @_ZN8CHeapObjIL8MEMFLAGS7EEdlEPv(ptr noundef %0) #1 comdat align 2 {
  %2 = alloca ptr, align 8
  store ptr %0, ptr %2, align 8
  %3 = load ptr, ptr %2, align 8
  call void @_ZN12CHeapObjBasedlEPv(ptr noundef %3) #9
  ret void
}

; Function Attrs: mustprogress nounwind uwtable
define linkonce_odr hidden void @_ZN13InlineMatcherD2Ev(ptr noundef nonnull align 8 dereferenceable(48) %0) unnamed_addr #1 comdat align 2 {
  %2 = alloca ptr, align 8
  store ptr %0, ptr %2, align 8
  %3 = load ptr, ptr %2, align 8
  call void @_ZN13MethodMatcherD2Ev(ptr noundef nonnull align 8 dereferenceable(32) %3) #9
  ret void
}

; Function Attrs: mustprogress nounwind uwtable
define linkonce_odr hidden void @_ZN13InlineMatcherC2Ev(ptr noundef nonnull align 8 dereferenceable(48) %0) unnamed_addr #1 comdat align 2 {
  %2 = alloca ptr, align 8
  store ptr %0, ptr %2, align 8
  %3 = load ptr, ptr %2, align 8
  call void @_ZN13MethodMatcherC2Ev(ptr noundef nonnull align 8 dereferenceable(32) %3)
  %4 = getelementptr inbounds %class.InlineMatcher, ptr %3, i32 0, i32 1
  store i32 0, ptr %4, align 8
  %5 = getelementptr inbounds %class.InlineMatcher, ptr %3, i32 0, i32 2
  store ptr null, ptr %5, align 8
  ret void
}

; Function Attrs: mustprogress nounwind uwtable
define hidden noundef ptr @_ZN13InlineMatcher20parse_method_patternEPcRPKc(ptr noundef %0, ptr noundef nonnull align 8 dereferenceable(8) %1) #1 align 2 {
  %3 = alloca i64, align 8
  %4 = alloca i8, align 1
  %5 = alloca i64, align 8
  %6 = alloca ptr, align 8
  %7 = alloca ptr, align 8
  %8 = alloca ptr, align 8
  %9 = alloca ptr, align 8
  store ptr %0, ptr %7, align 8
  store ptr %1, ptr %8, align 8
  store i64 48, ptr %5, align 8
  %10 = load i64, ptr %5, align 8
  store i64 %10, ptr %3, align 8
  store i8 7, ptr %4, align 1
  %11 = load i64, ptr %3, align 8
  %12 = load i8, ptr %4, align 1
  %13 = call noundef ptr @_Z12AllocateHeapm8MEMFLAGSN17AllocFailStrategy13AllocFailEnumE(i64 noundef %11, i8 noundef zeroext %12, i32 noundef 0) #9
  call void @_ZN13InlineMatcherC2Ev(ptr noundef nonnull align 8 dereferenceable(48) %13)
  store ptr %13, ptr %9, align 8
  %14 = load ptr, ptr %8, align 8
  %15 = load ptr, ptr %9, align 8
  call void @_ZN13MethodMatcher20parse_method_patternERPcRPKcPS_(ptr noundef nonnull align 8 dereferenceable(8) %7, ptr noundef nonnull align 8 dereferenceable(8) %14, ptr noundef %15)
  %16 = load ptr, ptr %8, align 8
  %17 = load ptr, ptr %16, align 8
  %18 = icmp ne ptr %17, null
  br i1 %18, label %19, label %24

19:                                               ; preds = %2
  %20 = load ptr, ptr %9, align 8
  %21 = icmp eq ptr %20, null
  br i1 %21, label %23, label %22

22:                                               ; preds = %19
  call void @_ZN13InlineMatcherD2Ev(ptr noundef nonnull align 8 dereferenceable(48) %20) #9
  call void @_ZN8CHeapObjIL8MEMFLAGS7EEdlEPv(ptr noundef %20) #9
  br label %23

23:                                               ; preds = %22, %19
  store ptr null, ptr %6, align 8
  br label %26

24:                                               ; preds = %2
  %25 = load ptr, ptr %9, align 8
  store ptr %25, ptr %6, align 8
  br label %26

26:                                               ; preds = %24, %23
  %27 = load ptr, ptr %6, align 8
  ret ptr %27
}