; Function Attrs: mustprogress nounwind uwtable
define hidden noundef ptr @_ZN13InlineMatcher20parse_method_patternEPcRPKc(ptr noundef %0, ptr nocapture noundef nonnull align 8 dereferenceable(8) %1) local_unnamed_addr #1 align 2 {
  %3 = alloca ptr, align 8
  store ptr %0, ptr %3, align 8
  %4 = tail call noundef ptr @_Z12AllocateHeapm8MEMFLAGSN17AllocFailStrategy13AllocFailEnumE(i64 noundef 48, i8 noundef zeroext 7, i32 noundef 0) #14
  %5 = getelementptr inbounds i8, ptr %4, i64 40
  store ptr null, ptr %5, align 8
  tail call void @llvm.memset.p0.i64(ptr noundef nonnull align 8 dereferenceable(36) %4, i8 0, i64 36, i1 false)
  call void @_ZN13MethodMatcher20parse_method_patternERPcRPKcPS_(ptr noundef nonnull align 8 dereferenceable(8) %3, ptr noundef nonnull align 8 dereferenceable(8) %1, ptr noundef nonnull %4)
  %6 = load ptr, ptr %1, align 8
  %.not = icmp eq ptr %6, null
  br i1 %.not, label %18, label %7

7:                                                ; preds = %2
  %8 = load ptr, ptr %4, align 8
  %.not.i.i = icmp eq ptr %8, null
  br i1 %.not.i.i, label %10, label %9

9:                                                ; preds = %7
  tail call void @_ZN6Symbol18decrement_refcountEv(ptr noundef nonnull align 4 dereferenceable(8) %8) #14
  br label %10

10:                                               ; preds = %9, %7
  %11 = getelementptr inbounds i8, ptr %4, i64 8
  %12 = load ptr, ptr %11, align 8
  %.not3.i.i = icmp eq ptr %12, null
  br i1 %.not3.i.i, label %14, label %13

13:                                               ; preds = %10
  tail call void @_ZN6Symbol18decrement_refcountEv(ptr noundef nonnull align 4 dereferenceable(8) %12) #14
  br label %14

14:                                               ; preds = %13, %10
  %15 = getelementptr inbounds i8, ptr %4, i64 16
  %16 = load ptr, ptr %15, align 8
  %.not4.i.i = icmp eq ptr %16, null
  br i1 %.not4.i.i, label %_ZN13InlineMatcherD2Ev.exit, label %17

17:                                               ; preds = %14
  tail call void @_ZN6Symbol18decrement_refcountEv(ptr noundef nonnull align 4 dereferenceable(8) %16) #14
  br label %_ZN13InlineMatcherD2Ev.exit

_ZN13InlineMatcherD2Ev.exit:                      ; preds = %14, %17
  tail call void @_Z8FreeHeapPv(ptr noundef nonnull %4) #14
  br label %18

18:                                               ; preds = %2, %_ZN13InlineMatcherD2Ev.exit
  %.0 = phi ptr [ null, %_ZN13InlineMatcherD2Ev.exit ], [ %4, %2 ]
  ret ptr %.0
}